target datalayout = "e-m:e-p270:32:32-p271:32:32-p272:64:64-i64:64-i128:128-f80:128-n8:16:32:64-S128"
target triple = "x86_64-pc-linux-gnu"

%struct.SDL_GUID = type { [16 x i8] }
%struct.SDL_Joystick = type { i32, ptr, ptr, ptr, %struct.SDL_GUID, i16, i64, i8, i8, i32, ptr, i32, ptr, i32, ptr, i32, ptr, i32, ptr, i32, i32, ptr, i16, i16, i64, i64, i16, i16, i64, i64, i8, i8, i8, i64, i8, i32, i32, i32, i8, i32, ptr, i32, ptr, [3 x [3 x float]], i64, ptr, ptr, i32, i32, ptr }
%union.SDL_Event = type { %struct.SDL_MouseWheelEvent, [72 x i8] }
%struct.SDL_MouseWheelEvent = type { i32, i32, i64, i32, i32, float, float, i32, float, float, i32, i32 }
%struct.SDL_CommonEvent = type { i32, i32, i64 }
%struct.SDL_JoystickSensorInfo = type { i32, i8, float, [3 x float] }
%struct.SDL_GamepadSensorEvent = type { i32, i32, i64, i32, i32, [3 x float], i64 }

@SDL_joystick_allows_background_events = internal global i8 0, align 1

; Function Attrs: nounwind uwtable
define internal zeroext i1 @SDL_PrivateJoystickShouldIgnoreEvent() #0 {
  %1 = alloca i1, align 1
  %2 = load i8, ptr @SDL_joystick_allows_background_events, align 1, !range !3, !noundef !4
  %3 = trunc i8 %2 to i1
  br i1 %3, label %4, label %5

4:                                                ; preds = %0
  store i1 false, ptr %1, align 1
  br label %12

5:                                                ; preds = %0
  %6 = call zeroext i1 @SDL_HasWindows()
  br i1 %6, label %7, label %11

7:                                                ; preds = %5
  %8 = call ptr @SDL_GetKeyboardFocus_REAL()
  %9 = icmp eq ptr %8, null
  br i1 %9, label %10, label %11

10:                                               ; preds = %7
  store i1 true, ptr %1, align 1
  br label %12

11:                                               ; preds = %7, %5
  store i1 false, ptr %1, align 1
  br label %12

12:                                               ; preds = %11, %10, %4
  %13 = load i1, ptr %1, align 1
  ret i1 %13
}

; Function Attrs: nounwind uwtable
define hidden void @SDL_AssertJoysticksLocked() #0 {
  br label %1

1:                                                ; preds = %0
  br label %2

2:                                                ; preds = %1
  ret void
}

; Function Attrs: nounwind uwtable
define hidden void @SDL_SendJoystickSensor(i64 noundef %0, ptr noundef %1, i32 noundef %2, i64 noundef %3, ptr noundef %4, i32 noundef %5) #0 {
  %7 = alloca i64, align 8
  %8 = alloca ptr, align 8
  %9 = alloca i32, align 4
  %10 = alloca i64, align 8
  %11 = alloca ptr, align 8
  %12 = alloca i32, align 4
  %13 = alloca i32, align 4
  %14 = alloca i32, align 4
  %15 = alloca ptr, align 8
  %16 = alloca %union.SDL_Event, align 8
  store i64 %0, ptr %7, align 8
  store ptr %1, ptr %8, align 8
  store i32 %2, ptr %9, align 4
  store i64 %3, ptr %10, align 8
  store ptr %4, ptr %11, align 8
  store i32 %5, ptr %12, align 4
  call void @SDL_AssertJoysticksLocked()
  %17 = call zeroext i1 @SDL_PrivateJoystickShouldIgnoreEvent()
  br i1 %17, label %18, label %19

18:                                               ; preds = %6
  br label %106

19:                                               ; preds = %6
  call void @llvm.lifetime.start.p0(i64 4, ptr %13) #7
  store i32 0, ptr %13, align 4
  br label %20

20:                                               ; preds = %102, %19
  %21 = load i32, ptr %13, align 4
  %22 = load ptr, ptr %8, align 8
  %23 = getelementptr inbounds nuw %struct.SDL_Joystick, ptr %22, i32 0, i32 19
  %24 = load i32, ptr %23, align 8
  %25 = icmp slt i32 %21, %24
  br i1 %25, label %27, label %26

26:                                               ; preds = %20
  store i32 2, ptr %14, align 4
  br label %105

27:                                               ; preds = %20
  call void @llvm.lifetime.start.p0(i64 8, ptr %15) #7
  %28 = load ptr, ptr %8, align 8
  %29 = getelementptr inbounds nuw %struct.SDL_Joystick, ptr %28, i32 0, i32 21
  %30 = load ptr, ptr %29, align 8
  %31 = load i32, ptr %13, align 4
  %32 = sext i32 %31 to i64
  %33 = getelementptr inbounds %struct.SDL_JoystickSensorInfo, ptr %30, i64 %32
  store ptr %33, ptr %15, align 8
  %34 = load ptr, ptr %15, align 8
  %35 = getelementptr inbounds nuw %struct.SDL_JoystickSensorInfo, ptr %34, i32 0, i32 0
  %36 = load i32, ptr %35, align 4
  %37 = load i32, ptr %9, align 4
  %38 = icmp eq i32 %36, %37
  br i1 %38, label %39, label %98

39:                                               ; preds = %27
  %40 = load ptr, ptr %15, align 8
  %41 = getelementptr inbounds nuw %struct.SDL_JoystickSensorInfo, ptr %40, i32 0, i32 1
  %42 = load i8, ptr %41, align 4, !range !3, !noundef !4
  %43 = trunc i8 %42 to i1
  br i1 %43, label %44, label %97

44:                                               ; preds = %39
  %45 = load i32, ptr %12, align 4
  %46 = sext i32 %45 to i64
  %47 = icmp ult i64 %46, 3
  br i1 %47, label %48, label %51

48:                                               ; preds = %44
  %49 = load i32, ptr %12, align 4
  %50 = sext i32 %49 to i64
  br label %52

51:                                               ; preds = %44
  br label %52

52:                                               ; preds = %51, %48
  %53 = phi i64 [ %50, %48 ], [ 3, %51 ]
  %54 = trunc i64 %53 to i32
  store i32 %54, ptr %12, align 4
  %55 = load ptr, ptr %15, align 8
  %56 = getelementptr inbounds nuw %struct.SDL_JoystickSensorInfo, ptr %55, i32 0, i32 3
  %57 = getelementptr inbounds [3 x float], ptr %56, i64 0, i64 0
  %58 = load ptr, ptr %11, align 8
  %59 = load i32, ptr %12, align 4
  %60 = sext i32 %59 to i64
  %61 = mul i64 %60, 4
  call void @llvm.memcpy.p0.p0.i64(ptr align 4 %57, ptr align 4 %58, i64 %61, i1 false)
  %62 = load i64, ptr %7, align 8
  %63 = load ptr, ptr %8, align 8
  %64 = getelementptr inbounds nuw %struct.SDL_Joystick, ptr %63, i32 0, i32 44
  store i64 %62, ptr %64, align 8
  %65 = call zeroext i1 @SDL_EventEnabled_REAL(i32 noundef 1625)
  br i1 %65, label %66, label %96

66:                                               ; preds = %52
  call void @llvm.lifetime.start.p0(i64 128, ptr %16) #7
  store i32 1625, ptr %16, align 8
  %67 = load i64, ptr %7, align 8
  %68 = getelementptr inbounds nuw %struct.SDL_CommonEvent, ptr %16, i32 0, i32 2
  store i64 %67, ptr %68, align 8
  %69 = load ptr, ptr %8, align 8
  %70 = getelementptr inbounds nuw %struct.SDL_Joystick, ptr %69, i32 0, i32 0
  %71 = load i32, ptr %70, align 8
  %72 = getelementptr inbounds nuw %struct.SDL_GamepadSensorEvent, ptr %16, i32 0, i32 3
  store i32 %71, ptr %72, align 8
  %73 = load i32, ptr %9, align 4
  %74 = getelementptr inbounds nuw %struct.SDL_GamepadSensorEvent, ptr %16, i32 0, i32 4
  store i32 %73, ptr %74, align 4
  %75 = load i32, ptr %12, align 4
  %76 = sext i32 %75 to i64
  %77 = icmp ult i64 %76, 3
  br i1 %77, label %78, label %81

78:                                               ; preds = %66
  %79 = load i32, ptr %12, align 4
  %80 = sext i32 %79 to i64
  br label %82

81:                                               ; preds = %66
  br label %82

82:                                               ; preds = %81, %78
  %83 = phi i64 [ %80, %78 ], [ 3, %81 ]
  %84 = trunc i64 %83 to i32
  store i32 %84, ptr %12, align 4
  %85 = getelementptr inbounds nuw %struct.SDL_GamepadSensorEvent, ptr %16, i32 0, i32 5
  %86 = getelementptr inbounds [3 x float], ptr %85, i64 0, i64 0
  call void @llvm.memset.p0.i64(ptr align 8 %86, i8 0, i64 12, i1 false)
  %87 = getelementptr inbounds nuw %struct.SDL_GamepadSensorEvent, ptr %16, i32 0, i32 5
  %88 = getelementptr inbounds [3 x float], ptr %87, i64 0, i64 0
  %89 = load ptr, ptr %11, align 8
  %90 = load i32, ptr %12, align 4
  %91 = sext i32 %90 to i64
  %92 = mul i64 %91, 4
  call void @llvm.memcpy.p0.p0.i64(ptr align 8 %88, ptr align 4 %89, i64 %92, i1 false)
  %93 = load i64, ptr %10, align 8
  %94 = getelementptr inbounds nuw %struct.SDL_GamepadSensorEvent, ptr %16, i32 0, i32 6
  store i64 %93, ptr %94, align 8
  %95 = call zeroext i1 @SDL_PushEvent_REAL(ptr noundef %16)
  call void @llvm.lifetime.end.p0(i64 128, ptr %16) #7
  br label %96

96:                                               ; preds = %82, %52
  br label %97

97:                                               ; preds = %96, %39
  store i32 2, ptr %14, align 4
  br label %99

98:                                               ; preds = %27
  store i32 0, ptr %14, align 4
  br label %99

99:                                               ; preds = %98, %97
  call void @llvm.lifetime.end.p0(i64 8, ptr %15) #7
  %100 = load i32, ptr %14, align 4
  switch i32 %100, label %105 [
    i32 0, label %101
  ]

101:                                              ; preds = %99
  br label %102

102:                                              ; preds = %101
  %103 = load i32, ptr %13, align 4
  %104 = add nsw i32 %103, 1
  store i32 %104, ptr %13, align 4
  br label %20, !llvm.loop !43

105:                                              ; preds = %99, %26
  call void @llvm.lifetime.end.p0(i64 4, ptr %13) #7
  br label %106

106:                                              ; preds = %18, %105
  ret void
}