; Function Attrs: nounwind uwtable
define hidden void @SDL_SendJoystickSensor(i64 noundef %0, ptr noundef captures(none) %1, i32 noundef %2, i64 noundef %3, ptr noundef readonly captures(none) %4, i32 noundef %5) local_unnamed_addr #1 {
  %7 = alloca %union.SDL_Event, align 8
  %.b1.i = load i1, ptr @SDL_joystick_allows_background_events, align 1
  br i1 %.b1.i, label %SDL_PrivateJoystickShouldIgnoreEvent.exit, label %8

8:                                                ; preds = %6
  %9 = tail call zeroext i1 @SDL_HasWindows() #13
  br i1 %9, label %10, label %SDL_PrivateJoystickShouldIgnoreEvent.exit

10:                                               ; preds = %8
  %11 = tail call ptr @SDL_GetKeyboardFocus_REAL() #13
  %12 = icmp eq ptr %11, null
  br i1 %12, label %SDL_PrivateJoystickShouldIgnoreEvent.exit.thread, label %SDL_PrivateJoystickShouldIgnoreEvent.exit

SDL_PrivateJoystickShouldIgnoreEvent.exit:        ; preds = %8, %10, %6
  %13 = getelementptr inbounds nuw i8, ptr %1, i64 144
  %14 = load i32, ptr %13, align 8
  %15 = icmp sgt i32 %14, 0
  br i1 %15, label %.lr.ph, label %SDL_PrivateJoystickShouldIgnoreEvent.exit.thread

.lr.ph:                                           ; preds = %SDL_PrivateJoystickShouldIgnoreEvent.exit
  %16 = getelementptr inbounds nuw i8, ptr %1, i64 152
  %17 = load ptr, ptr %16, align 8
  %wide.trip.count = zext nneg i32 %14 to i64
  br label %19

18:                                               ; preds = %19
  %indvars.iv.next = add nuw nsw i64 %indvars.iv, 1
  %exitcond.not = icmp eq i64 %indvars.iv.next, %wide.trip.count
  br i1 %exitcond.not, label %SDL_PrivateJoystickShouldIgnoreEvent.exit.thread, label %19, !llvm.loop !45

19:                                               ; preds = %.lr.ph, %18
  %indvars.iv = phi i64 [ 0, %.lr.ph ], [ %indvars.iv.next, %18 ]
  %20 = getelementptr inbounds nuw %struct.SDL_JoystickSensorInfo, ptr %17, i64 %indvars.iv
  %21 = load i32, ptr %20, align 4
  %.not = icmp eq i32 %21, %2
  br i1 %.not, label %22, label %18

22:                                               ; preds = %19
  %23 = getelementptr inbounds nuw i8, ptr %20, i64 4
  %24 = load i8, ptr %23, align 4, !range !26, !noundef !27
  %25 = trunc nuw i8 %24 to i1
  br i1 %25, label %26, label %SDL_PrivateJoystickShouldIgnoreEvent.exit.thread

26:                                               ; preds = %22
  %27 = tail call i32 @llvm.umin.i32(i32 %5, i32 3)
  %28 = getelementptr inbounds nuw i8, ptr %20, i64 12
  %29 = shl nuw nsw i32 %27, 2
  %30 = zext nneg i32 %29 to i64
  tail call void @llvm.memcpy.p0.p0.i64(ptr nonnull align 4 %28, ptr align 4 %4, i64 %30, i1 false)
  %31 = getelementptr inbounds nuw i8, ptr %1, i64 312
  store i64 %0, ptr %31, align 8
  %32 = tail call zeroext i1 @SDL_EventEnabled_REAL(i32 noundef 1625) #13
  br i1 %32, label %33, label %SDL_PrivateJoystickShouldIgnoreEvent.exit.thread

33:                                               ; preds = %26
  call void @llvm.lifetime.start.p0(i64 128, ptr nonnull %7) #13
  store i32 1625, ptr %7, align 8
  %34 = getelementptr inbounds nuw i8, ptr %7, i64 8
  store i64 %0, ptr %34, align 8
  %35 = load i32, ptr %1, align 8
  %36 = getelementptr inbounds nuw i8, ptr %7, i64 16
  store i32 %35, ptr %36, align 8
  %37 = getelementptr inbounds nuw i8, ptr %7, i64 20
  store i32 %2, ptr %37, align 4
  %38 = getelementptr inbounds nuw i8, ptr %7, i64 24
  call void @llvm.memset.p0.i64(ptr noundef nonnull align 8 dereferenceable(12) %38, i8 0, i64 12, i1 false)
  call void @llvm.memcpy.p0.p0.i64(ptr nonnull align 8 %38, ptr align 4 %4, i64 %30, i1 false)
  %39 = getelementptr inbounds nuw i8, ptr %7, i64 40
  store i64 %3, ptr %39, align 8
  %40 = call zeroext i1 @SDL_PushEvent_REAL(ptr noundef nonnull %7) #13
  call void @llvm.lifetime.end.p0(i64 128, ptr nonnull %7) #13
  br label %SDL_PrivateJoystickShouldIgnoreEvent.exit.thread

SDL_PrivateJoystickShouldIgnoreEvent.exit.thread: ; preds = %18, %SDL_PrivateJoystickShouldIgnoreEvent.exit, %26, %33, %22, %10
  ret void
}